; Function Attrs: mustprogress nounwind uwtable
define hidden void @_ZN12WriteClosure6do_ptrEPPv(ptr nocapture noundef nonnull readonly align 8 dereferenceable(16) %0, ptr nocapture noundef readonly %1) unnamed_addr #0 align 2 {
  %3 = load ptr, ptr %1, align 8
  %.not = icmp eq ptr %3, null
  br i1 %.not, label %.thread, label %4

4:                                                ; preds = %2
  %5 = load ptr, ptr @_ZN14ArchiveBuilder8_currentE, align 8
  %6 = getelementptr inbounds i8, ptr %5, i64 16
  %7 = load ptr, ptr %6, align 8
  %.not.i = icmp ugt ptr %7, %3
  br i1 %.not.i, label %_ZNK14ArchiveBuilder18is_in_buffer_spaceEPh.exit.thread, label %_ZNK14ArchiveBuilder18is_in_buffer_spaceEPh.exit

_ZNK14ArchiveBuilder18is_in_buffer_spaceEPh.exit: ; preds = %4
  %8 = getelementptr inbounds i8, ptr %5, i64 8
  %9 = load ptr, ptr %8, align 8
  %10 = getelementptr inbounds i8, ptr %9, i64 16
  %11 = load ptr, ptr %10, align 8
  %12 = icmp ugt ptr %11, %3
  br i1 %12, label %.thread13, label %_ZNK14ArchiveBuilder18is_in_buffer_spaceEPh.exit.thread

_ZNK14ArchiveBuilder18is_in_buffer_spaceEPh.exit.thread: ; preds = %4, %_ZNK14ArchiveBuilder18is_in_buffer_spaceEPh.exit
  %13 = tail call noundef ptr @_ZNK14ArchiveBuilder17get_buffered_addrEPh(ptr noundef nonnull align 8 dereferenceable(1080) %5, ptr noundef nonnull %3) #10
  %.not10 = icmp eq ptr %13, null
  br i1 %.not10, label %.thread, label %_ZNK14ArchiveBuilder18is_in_buffer_spaceEPh.exit.thread..thread13_crit_edge

_ZNK14ArchiveBuilder18is_in_buffer_spaceEPh.exit.thread..thread13_crit_edge: ; preds = %_ZNK14ArchiveBuilder18is_in_buffer_spaceEPh.exit.thread
  %.pre = load ptr, ptr @_ZN14ArchiveBuilder8_currentE, align 8
  br label %.thread13

.thread13:                                        ; preds = %_ZNK14ArchiveBuilder18is_in_buffer_spaceEPh.exit.thread..thread13_crit_edge, %_ZNK14ArchiveBuilder18is_in_buffer_spaceEPh.exit
  %14 = phi ptr [ %.pre, %_ZNK14ArchiveBuilder18is_in_buffer_spaceEPh.exit.thread..thread13_crit_edge ], [ %5, %_ZNK14ArchiveBuilder18is_in_buffer_spaceEPh.exit ]
  %.016 = phi ptr [ %13, %_ZNK14ArchiveBuilder18is_in_buffer_spaceEPh.exit.thread..thread13_crit_edge ], [ %3, %_ZNK14ArchiveBuilder18is_in_buffer_spaceEPh.exit ]
  %15 = tail call noundef i64 @_ZNK14ArchiveBuilder16buffer_to_offsetEPh(ptr noundef nonnull align 8 dereferenceable(1080) %14, ptr noundef nonnull %.016) #10
  br label %.thread

.thread:                                          ; preds = %2, %.thread13, %_ZNK14ArchiveBuilder18is_in_buffer_spaceEPh.exit.thread
  %.1 = phi i64 [ %15, %.thread13 ], [ 0, %_ZNK14ArchiveBuilder18is_in_buffer_spaceEPh.exit.thread ], [ 0, %2 ]
  %16 = getelementptr inbounds i8, ptr %0, i64 8
  %17 = load ptr, ptr %16, align 8
  %18 = getelementptr inbounds i8, ptr %17, i64 16
  %19 = load ptr, ptr %18, align 8
  %20 = getelementptr inbounds i8, ptr %19, i64 8
  %21 = tail call noundef ptr @_ZN10DumpRegion13expand_top_toEPc(ptr noundef nonnull align 8 dereferenceable(64) %17, ptr noundef nonnull %20)
  store i64 %.1, ptr %19, align 8
  ret void
}